
pwnme:     file format elf32-i386


Disassembly of section .init:

08048330 <_init>:
 8048330:	53                   	push   ebx
 8048331:	83 ec 08             	sub    esp,0x8
 8048334:	e8 c7 00 00 00       	call   8048400 <__x86.get_pc_thunk.bx>
 8048339:	81 c3 c7 1c 00 00    	add    ebx,0x1cc7
 804833f:	8b 83 fc ff ff ff    	mov    eax,DWORD PTR [ebx-0x4]
 8048345:	85 c0                	test   eax,eax
 8048347:	74 05                	je     804834e <_init+0x1e>
 8048349:	e8 72 00 00 00       	call   80483c0 <__isoc99_scanf@plt+0x10>
 804834e:	83 c4 08             	add    esp,0x8
 8048351:	5b                   	pop    ebx
 8048352:	c3                   	ret    

Disassembly of section .plt:

08048360 <printf@plt-0x10>:
 8048360:	ff 35 04 a0 04 08    	push   DWORD PTR ds:0x804a004
 8048366:	ff 25 08 a0 04 08    	jmp    DWORD PTR ds:0x804a008
 804836c:	00 00                	add    BYTE PTR [eax],al
	...

08048370 <printf@plt>:
 8048370:	ff 25 0c a0 04 08    	jmp    DWORD PTR ds:0x804a00c
 8048376:	68 00 00 00 00       	push   0x0
 804837b:	e9 e0 ff ff ff       	jmp    8048360 <_init+0x30>

08048380 <strcat@plt>:
 8048380:	ff 25 10 a0 04 08    	jmp    DWORD PTR ds:0x804a010
 8048386:	68 08 00 00 00       	push   0x8
 804838b:	e9 d0 ff ff ff       	jmp    8048360 <_init+0x30>

08048390 <puts@plt>:
 8048390:	ff 25 14 a0 04 08    	jmp    DWORD PTR ds:0x804a014
 8048396:	68 10 00 00 00       	push   0x10
 804839b:	e9 c0 ff ff ff       	jmp    8048360 <_init+0x30>

080483a0 <__libc_start_main@plt>:
 80483a0:	ff 25 18 a0 04 08    	jmp    DWORD PTR ds:0x804a018
 80483a6:	68 18 00 00 00       	push   0x18
 80483ab:	e9 b0 ff ff ff       	jmp    8048360 <_init+0x30>

080483b0 <__isoc99_scanf@plt>:
 80483b0:	ff 25 1c a0 04 08    	jmp    DWORD PTR ds:0x804a01c
 80483b6:	68 20 00 00 00       	push   0x20
 80483bb:	e9 a0 ff ff ff       	jmp    8048360 <_init+0x30>

Disassembly of section .plt.got:

080483c0 <.plt.got>:
 80483c0:	ff 25 fc 9f 04 08    	jmp    DWORD PTR ds:0x8049ffc
 80483c6:	66 90                	xchg   ax,ax

Disassembly of section .text:

080483d0 <_start>:
 80483d0:	31 ed                	xor    ebp,ebp
 80483d2:	5e                   	pop    esi
 80483d3:	89 e1                	mov    ecx,esp
 80483d5:	83 e4 f0             	and    esp,0xfffffff0
 80483d8:	50                   	push   eax
 80483d9:	54                   	push   esp
 80483da:	52                   	push   edx
 80483db:	68 a0 85 04 08       	push   0x80485a0
 80483e0:	68 40 85 04 08       	push   0x8048540
 80483e5:	51                   	push   ecx
 80483e6:	56                   	push   esi
 80483e7:	68 cd 84 04 08       	push   0x80484cd
 80483ec:	e8 af ff ff ff       	call   80483a0 <__libc_start_main@plt>
 80483f1:	f4                   	hlt    
 80483f2:	66 90                	xchg   ax,ax
 80483f4:	66 90                	xchg   ax,ax
 80483f6:	66 90                	xchg   ax,ax
 80483f8:	66 90                	xchg   ax,ax
 80483fa:	66 90                	xchg   ax,ax
 80483fc:	66 90                	xchg   ax,ax
 80483fe:	66 90                	xchg   ax,ax

08048400 <__x86.get_pc_thunk.bx>:
 8048400:	8b 1c 24             	mov    ebx,DWORD PTR [esp]
 8048403:	c3                   	ret    
 8048404:	66 90                	xchg   ax,ax
 8048406:	66 90                	xchg   ax,ax
 8048408:	66 90                	xchg   ax,ax
 804840a:	66 90                	xchg   ax,ax
 804840c:	66 90                	xchg   ax,ax
 804840e:	66 90                	xchg   ax,ax

08048410 <deregister_tm_clones>:
 8048410:	b8 2b a0 04 08       	mov    eax,0x804a02b
 8048415:	2d 28 a0 04 08       	sub    eax,0x804a028
 804841a:	83 f8 06             	cmp    eax,0x6
 804841d:	77 01                	ja     8048420 <deregister_tm_clones+0x10>
 804841f:	c3                   	ret    
 8048420:	b8 00 00 00 00       	mov    eax,0x0
 8048425:	85 c0                	test   eax,eax
 8048427:	74 f6                	je     804841f <deregister_tm_clones+0xf>
 8048429:	55                   	push   ebp
 804842a:	89 e5                	mov    ebp,esp
 804842c:	83 ec 18             	sub    esp,0x18
 804842f:	c7 04 24 28 a0 04 08 	mov    DWORD PTR [esp],0x804a028
 8048436:	ff d0                	call   eax
 8048438:	c9                   	leave  
 8048439:	c3                   	ret    
 804843a:	8d b6 00 00 00 00    	lea    esi,[esi+0x0]

08048440 <register_tm_clones>:
 8048440:	b8 28 a0 04 08       	mov    eax,0x804a028
 8048445:	2d 28 a0 04 08       	sub    eax,0x804a028
 804844a:	c1 f8 02             	sar    eax,0x2
 804844d:	89 c2                	mov    edx,eax
 804844f:	c1 ea 1f             	shr    edx,0x1f
 8048452:	01 d0                	add    eax,edx
 8048454:	d1 f8                	sar    eax,1
 8048456:	75 01                	jne    8048459 <register_tm_clones+0x19>
 8048458:	c3                   	ret    
 8048459:	ba 00 00 00 00       	mov    edx,0x0
 804845e:	85 d2                	test   edx,edx
 8048460:	74 f6                	je     8048458 <register_tm_clones+0x18>
 8048462:	55                   	push   ebp
 8048463:	89 e5                	mov    ebp,esp
 8048465:	83 ec 18             	sub    esp,0x18
 8048468:	89 44 24 04          	mov    DWORD PTR [esp+0x4],eax
 804846c:	c7 04 24 28 a0 04 08 	mov    DWORD PTR [esp],0x804a028
 8048473:	ff d2                	call   edx
 8048475:	c9                   	leave  
 8048476:	c3                   	ret    
 8048477:	89 f6                	mov    esi,esi
 8048479:	8d bc 27 00 00 00 00 	lea    edi,[edi+eiz*1+0x0]

08048480 <__do_global_dtors_aux>:
 8048480:	80 3d 40 a0 04 08 00 	cmp    BYTE PTR ds:0x804a040,0x0
 8048487:	75 13                	jne    804849c <__do_global_dtors_aux+0x1c>
 8048489:	55                   	push   ebp
 804848a:	89 e5                	mov    ebp,esp
 804848c:	83 ec 08             	sub    esp,0x8
 804848f:	e8 7c ff ff ff       	call   8048410 <deregister_tm_clones>
 8048494:	c6 05 40 a0 04 08 01 	mov    BYTE PTR ds:0x804a040,0x1
 804849b:	c9                   	leave  
 804849c:	f3 c3                	repz ret 
 804849e:	66 90                	xchg   ax,ax

080484a0 <frame_dummy>:
 80484a0:	a1 10 9f 04 08       	mov    eax,ds:0x8049f10
 80484a5:	85 c0                	test   eax,eax
 80484a7:	74 1f                	je     80484c8 <frame_dummy+0x28>
 80484a9:	b8 00 00 00 00       	mov    eax,0x0
 80484ae:	85 c0                	test   eax,eax
 80484b0:	74 16                	je     80484c8 <frame_dummy+0x28>
 80484b2:	55                   	push   ebp
 80484b3:	89 e5                	mov    ebp,esp
 80484b5:	83 ec 18             	sub    esp,0x18
 80484b8:	c7 04 24 10 9f 04 08 	mov    DWORD PTR [esp],0x8049f10
 80484bf:	ff d0                	call   eax
 80484c1:	c9                   	leave  
 80484c2:	e9 79 ff ff ff       	jmp    8048440 <register_tm_clones>
 80484c7:	90                   	nop
 80484c8:	e9 73 ff ff ff       	jmp    8048440 <register_tm_clones>

080484cd <main>:
 80484cd:	55                   	push   ebp
 80484ce:	89 e5                	mov    ebp,esp
 80484d0:	83 e4 f0             	and    esp,0xfffffff0
 80484d3:	83 ec 20             	sub    esp,0x20
 80484d6:	c7 04 24 c0 85 04 08 	mov    DWORD PTR [esp],0x80485c0
 80484dd:	e8 8e fe ff ff       	call   8048370 <printf@plt>
 80484e2:	8d 44 24 10          	lea    eax,[esp+0x10]
 80484e6:	89 44 24 04          	mov    DWORD PTR [esp+0x4],eax
 80484ea:	c7 04 24 d3 85 04 08 	mov    DWORD PTR [esp],0x80485d3
 80484f1:	e8 ba fe ff ff       	call   80483b0 <__isoc99_scanf@plt>
 80484f6:	c7 05 60 a0 04 08 20 	mov    DWORD PTR ds:0x804a060,0x6c654820
 80484fd:	48 65 6c 
 8048500:	c7 05 64 a0 04 08 6c 	mov    DWORD PTR ds:0x804a064,0x202c6f6c
 8048507:	6f 2c 20 
 804850a:	c6 05 68 a0 04 08 00 	mov    BYTE PTR ds:0x804a068,0x0
 8048511:	8d 44 24 10          	lea    eax,[esp+0x10]
 8048515:	89 44 24 04          	mov    DWORD PTR [esp+0x4],eax
 8048519:	c7 04 24 60 a0 04 08 	mov    DWORD PTR [esp],0x804a060
 8048520:	e8 5b fe ff ff       	call   8048380 <strcat@plt>
 8048525:	c7 04 24 60 a0 04 08 	mov    DWORD PTR [esp],0x804a060
 804852c:	e8 5f fe ff ff       	call   8048390 <puts@plt>
 8048531:	b8 00 00 00 00       	mov    eax,0x0
 8048536:	c9                   	leave  
 8048537:	c3                   	ret    
 8048538:	66 90                	xchg   ax,ax
 804853a:	66 90                	xchg   ax,ax
 804853c:	66 90                	xchg   ax,ax
 804853e:	66 90                	xchg   ax,ax

08048540 <__libc_csu_init>:
 8048540:	55                   	push   ebp
 8048541:	57                   	push   edi
 8048542:	56                   	push   esi
 8048543:	53                   	push   ebx
 8048544:	e8 b7 fe ff ff       	call   8048400 <__x86.get_pc_thunk.bx>
 8048549:	81 c3 b7 1a 00 00    	add    ebx,0x1ab7
 804854f:	83 ec 0c             	sub    esp,0xc
 8048552:	8b 6c 24 20          	mov    ebp,DWORD PTR [esp+0x20]
 8048556:	8d b3 0c ff ff ff    	lea    esi,[ebx-0xf4]
 804855c:	e8 cf fd ff ff       	call   8048330 <_init>
 8048561:	8d 83 08 ff ff ff    	lea    eax,[ebx-0xf8]
 8048567:	29 c6                	sub    esi,eax
 8048569:	c1 fe 02             	sar    esi,0x2
 804856c:	85 f6                	test   esi,esi
 804856e:	74 25                	je     8048595 <__libc_csu_init+0x55>
 8048570:	31 ff                	xor    edi,edi
 8048572:	8d b6 00 00 00 00    	lea    esi,[esi+0x0]
 8048578:	83 ec 04             	sub    esp,0x4
 804857b:	ff 74 24 2c          	push   DWORD PTR [esp+0x2c]
 804857f:	ff 74 24 2c          	push   DWORD PTR [esp+0x2c]
 8048583:	55                   	push   ebp
 8048584:	ff 94 bb 08 ff ff ff 	call   DWORD PTR [ebx+edi*4-0xf8]
 804858b:	83 c7 01             	add    edi,0x1
 804858e:	83 c4 10             	add    esp,0x10
 8048591:	39 f7                	cmp    edi,esi
 8048593:	75 e3                	jne    8048578 <__libc_csu_init+0x38>
 8048595:	83 c4 0c             	add    esp,0xc
 8048598:	5b                   	pop    ebx
 8048599:	5e                   	pop    esi
 804859a:	5f                   	pop    edi
 804859b:	5d                   	pop    ebp
 804859c:	c3                   	ret    
 804859d:	8d 76 00             	lea    esi,[esi+0x0]

080485a0 <__libc_csu_fini>:
 80485a0:	f3 c3                	repz ret 

Disassembly of section .fini:

080485a4 <_fini>:
 80485a4:	53                   	push   ebx
 80485a5:	83 ec 08             	sub    esp,0x8
 80485a8:	e8 53 fe ff ff       	call   8048400 <__x86.get_pc_thunk.bx>
 80485ad:	81 c3 53 1a 00 00    	add    ebx,0x1a53
 80485b3:	83 c4 08             	add    esp,0x8
 80485b6:	5b                   	pop    ebx
 80485b7:	c3                   	ret    
